target datalayout = "e-m:e-p270:32:32-p271:32:32-p272:64:64-i64:64-i128:128-f80:128-n8:16:32:64-S128"
target triple = "x86_64-pc-linux-gnu"

%struct.preference = type { ptr, ptr, ptr, i32, i32, i32, %union.anon, %union.anon.0, %union.anon.1, %union.anon.2, %struct.pref_custom_cbs, ptr, ptr }
%union.anon = type { ptr }
%union.anon.0 = type { ptr }
%union.anon.1 = type { ptr }
%union.anon.2 = type { %struct.anon }
%struct.anon = type { ptr, i8 }
%struct.pref_custom_cbs = type { ptr, ptr, ptr, ptr, ptr, ptr, ptr }

; Function Attrs: null_pointer_is_valid sspstrong uwtable
define internal ptr @prefs_register_range_preference_common(ptr noundef %0, ptr noundef %1, ptr noundef %2, ptr noundef %3, ptr noundef %4, i32 noundef %5, i32 noundef %6) #1 {
  %8 = alloca ptr, align 8
  %9 = alloca ptr, align 8
  %10 = alloca ptr, align 8
  %11 = alloca ptr, align 8
  %12 = alloca ptr, align 8
  %13 = alloca i32, align 4
  %14 = alloca i32, align 4
  %15 = alloca ptr, align 8
  store ptr %0, ptr %8, align 8
  store ptr %1, ptr %9, align 8
  store ptr %2, ptr %10, align 8
  store ptr %3, ptr %11, align 8
  store ptr %4, ptr %12, align 8
  store i32 %5, ptr %13, align 4
  store i32 %6, ptr %14, align 4
  call void @llvm.lifetime.start.p0(i64 8, ptr %15) #17
  %16 = load ptr, ptr %8, align 8
  %17 = load ptr, ptr %9, align 8
  %18 = load ptr, ptr %10, align 8
  %19 = load ptr, ptr %11, align 8
  %20 = load i32, ptr %14, align 4
  %21 = call ptr @register_preference(ptr noundef %16, ptr noundef %17, ptr noundef %18, ptr noundef %19, i32 noundef %20)
  store ptr %21, ptr %15, align 8
  %22 = load i32, ptr %13, align 4
  %23 = load ptr, ptr %15, align 8
  %24 = getelementptr inbounds nuw %struct.preference, ptr %23, i32 0, i32 9
  store i32 %22, ptr %24, align 8
  %25 = load ptr, ptr %12, align 8
  %26 = load ptr, ptr %25, align 8
  %27 = icmp eq ptr %26, null
  br i1 %27, label %28, label %32

28:                                               ; preds = %7
  %29 = call ptr @wmem_epan_scope()
  %30 = call ptr @range_empty(ptr noundef %29)
  %31 = load ptr, ptr %12, align 8
  store ptr %30, ptr %31, align 8
  br label %32

32:                                               ; preds = %28, %7
  %33 = load ptr, ptr %12, align 8
  %34 = load ptr, ptr %15, align 8
  %35 = getelementptr inbounds nuw %struct.preference, ptr %34, i32 0, i32 6
  store ptr %33, ptr %35, align 8
  %36 = call ptr @wmem_epan_scope()
  %37 = load ptr, ptr %12, align 8
  %38 = load ptr, ptr %37, align 8
  %39 = call ptr @range_copy(ptr noundef %36, ptr noundef %38)
  %40 = load ptr, ptr %15, align 8
  %41 = getelementptr inbounds nuw %struct.preference, ptr %40, i32 0, i32 8
  store ptr %39, ptr %41, align 8
  %42 = load ptr, ptr %15, align 8
  %43 = getelementptr inbounds nuw %struct.preference, ptr %42, i32 0, i32 7
  store ptr null, ptr %43, align 8
  %44 = load ptr, ptr %15, align 8
  call void @llvm.lifetime.end.p0(i64 8, ptr %15) #17
  ret ptr %44
}

; Function Attrs: null_pointer_is_valid sspstrong uwtable
define hidden void @prefs_register_decode_as_range_preference(ptr noundef %0, ptr noundef %1, ptr noundef %2, ptr noundef %3, ptr noundef %4, i32 noundef %5, ptr noundef %6, ptr noundef %7) #1 {
  %9 = alloca ptr, align 8
  %10 = alloca ptr, align 8
  %11 = alloca ptr, align 8
  %12 = alloca ptr, align 8
  %13 = alloca ptr, align 8
  %14 = alloca i32, align 4
  %15 = alloca ptr, align 8
  %16 = alloca ptr, align 8
  %17 = alloca ptr, align 8
  store ptr %0, ptr %9, align 8
  store ptr %1, ptr %10, align 8
  store ptr %2, ptr %11, align 8
  store ptr %3, ptr %12, align 8
  store ptr %4, ptr %13, align 8
  store i32 %5, ptr %14, align 4
  store ptr %6, ptr %15, align 8
  store ptr %7, ptr %16, align 8
  call void @llvm.lifetime.start.p0(i64 8, ptr %17) #17
  %18 = load ptr, ptr %9, align 8
  %19 = load ptr, ptr %10, align 8
  %20 = load ptr, ptr %11, align 8
  %21 = load ptr, ptr %12, align 8
  %22 = load ptr, ptr %13, align 8
  %23 = load i32, ptr %14, align 4
  %24 = call ptr @prefs_register_range_preference_common(ptr noundef %18, ptr noundef %19, ptr noundef %20, ptr noundef %21, ptr noundef %22, i32 noundef %23, i32 noundef 8192)
  store ptr %24, ptr %17, align 8
  %25 = load ptr, ptr %16, align 8
  %26 = load ptr, ptr %17, align 8
  %27 = getelementptr inbounds nuw %struct.preference, ptr %26, i32 0, i32 12
  store ptr %25, ptr %27, align 8
  %28 = load ptr, ptr %15, align 8
  %29 = load ptr, ptr %17, align 8
  %30 = getelementptr inbounds nuw %struct.preference, ptr %29, i32 0, i32 11
  store ptr %28, ptr %30, align 8
  call void @llvm.lifetime.end.p0(i64 8, ptr %17) #17
  ret void
}