; Function Attrs: null_pointer_is_valid sspstrong uwtable
define hidden void @prefs_register_decode_as_range_preference(ptr noundef captures(address_is_null) %0, ptr noundef %1, ptr noundef %2, ptr noundef %3, ptr noundef %4, i32 noundef %5, ptr noundef %6, ptr noundef %7) local_unnamed_addr #1 {
  %9 = tail call fastcc ptr @register_preference(ptr noundef %0, ptr noundef %1, ptr noundef %2, ptr noundef %3, i32 noundef 8192)
  %10 = getelementptr inbounds nuw i8, ptr %9, i64 64
  store i32 %5, ptr %10, align 8
  %11 = load ptr, ptr %4, align 8
  %12 = icmp eq ptr %11, null
  br i1 %12, label %13, label %prefs_register_range_preference_common.exit

13:                                               ; preds = %8
  %14 = tail call ptr @wmem_epan_scope()
  %15 = tail call ptr @range_empty(ptr noundef %14)
  store ptr %15, ptr %4, align 8
  br label %prefs_register_range_preference_common.exit

prefs_register_range_preference_common.exit:      ; preds = %8, %13
  %16 = getelementptr inbounds nuw i8, ptr %9, i64 40
  store ptr %4, ptr %16, align 8
  %17 = tail call ptr @wmem_epan_scope()
  %18 = load ptr, ptr %4, align 8
  %19 = tail call ptr @range_copy(ptr noundef %17, ptr noundef %18)
  %20 = getelementptr inbounds nuw i8, ptr %9, i64 56
  store ptr %19, ptr %20, align 8
  %21 = getelementptr inbounds nuw i8, ptr %9, i64 48
  store ptr null, ptr %21, align 8
  %22 = getelementptr inbounds nuw i8, ptr %9, i64 144
  store ptr %7, ptr %22, align 8
  %23 = getelementptr inbounds nuw i8, ptr %9, i64 136
  store ptr %6, ptr %23, align 8
  ret void
}